; Function Attrs: mustprogress nofree norecurse nosync nounwind willreturn memory(readwrite, inaccessiblemem: none) uwtable
define noundef i32 @H5B2_get_addr(ptr noundef readonly captures(none) %0, ptr noundef writeonly captures(none) %1) local_unnamed_addr #3 {
  %3 = load i8, ptr @H5B2_init_g, align 1, !tbaa !3, !range !7, !noundef !8
  %4 = trunc nuw i8 %3 to i1
  %5 = load i8, ptr @H5_libterm_g, align 1, !range !7
  %6 = trunc nuw i8 %5 to i1
  %7 = select i1 %4, i1 true, i1 %6
  br i1 %7, label %8, label %.thread, !prof !9

.thread:                                          ; preds = %2
  store i8 1, ptr @H5B2_init_g, align 1, !tbaa !3
  br label %11

8:                                                ; preds = %2
  %9 = xor i1 %6, true
  %10 = select i1 %4, i1 true, i1 %9
  br i1 %10, label %11, label %15, !prof !10

11:                                               ; preds = %.thread, %8
  %12 = load ptr, ptr %0, align 8, !tbaa !13
  %13 = getelementptr inbounds nuw i8, ptr %12, i64 296
  %14 = load i64, ptr %13, align 8, !tbaa !35
  store i64 %14, ptr %1, align 8, !tbaa !11
  br label %15

15:                                               ; preds = %11, %8
  ret i32 0
}